target datalayout = "e-m:e-p270:32:32-p271:32:32-p272:64:64-i64:64-i128:128-f80:128-n8:16:32:64-S128"
target triple = "x86_64-pc-linux-gnu"

@base_yyout = external global ptr, align 8
@.str.10 = private unnamed_addr constant [2 x i8] c"\22\00", align 1
@.str.33 = private unnamed_addr constant [3 x i8] c"\\\22\00", align 1
@.str.34 = private unnamed_addr constant [3 x i8] c"\\\0A\00", align 1
@.str.35 = private unnamed_addr constant [3 x i8] c"\\\\\00", align 1
@.str.36 = private unnamed_addr constant [4 x i8] c"\\\0D\0A\00", align 1

; Function Attrs: nounwind uwtable
define internal void @output_escaped_str(ptr noundef %0, i1 noundef zeroext %1) #0 {
  %3 = alloca ptr, align 8
  %4 = alloca i8, align 1
  %5 = alloca i32, align 4
  %6 = alloca i32, align 4
  %7 = alloca i32, align 4
  store ptr %0, ptr %3, align 8
  %8 = zext i1 %1 to i8
  store i8 %8, ptr %4, align 1
  call void @llvm.lifetime.start.p0(i64 4, ptr %5) #5
  store i32 0, ptr %5, align 4
  call void @llvm.lifetime.start.p0(i64 4, ptr %6) #5
  %9 = load ptr, ptr %3, align 8
  %10 = call i64 @strlen(ptr noundef %9) #6
  %11 = trunc i64 %10 to i32
  store i32 %11, ptr %6, align 4
  %12 = load i8, ptr %4, align 1, !range !6, !noundef !7
  %13 = trunc i8 %12 to i1
  br i1 %13, label %14, label %34

14:                                               ; preds = %2
  %15 = load ptr, ptr %3, align 8
  %16 = getelementptr inbounds i8, ptr %15, i64 0
  %17 = load i8, ptr %16, align 1
  %18 = sext i8 %17 to i32
  %19 = icmp eq i32 %18, 34
  br i1 %19, label %20, label %34

20:                                               ; preds = %14
  %21 = load ptr, ptr %3, align 8
  %22 = load i32, ptr %6, align 4
  %23 = sub i32 %22, 1
  %24 = sext i32 %23 to i64
  %25 = getelementptr inbounds i8, ptr %21, i64 %24
  %26 = load i8, ptr %25, align 1
  %27 = sext i8 %26 to i32
  %28 = icmp eq i32 %27, 34
  br i1 %28, label %29, label %34

29:                                               ; preds = %20
  store i32 1, ptr %5, align 4
  %30 = load i32, ptr %6, align 4
  %31 = add i32 %30, -1
  store i32 %31, ptr %6, align 4
  %32 = load ptr, ptr @base_yyout, align 8
  %33 = call i32 @fputs(ptr noundef @.str.10, ptr noundef %32)
  br label %34

34:                                               ; preds = %29, %20, %14, %2
  br label %35

35:                                               ; preds = %156, %34
  %36 = load i32, ptr %5, align 4
  %37 = load i32, ptr %6, align 4
  %38 = icmp slt i32 %36, %37
  br i1 %38, label %39, label %159

39:                                               ; preds = %35
  %40 = load ptr, ptr %3, align 8
  %41 = load i32, ptr %5, align 4
  %42 = sext i32 %41 to i64
  %43 = getelementptr inbounds i8, ptr %40, i64 %42
  %44 = load i8, ptr %43, align 1
  %45 = sext i8 %44 to i32
  %46 = icmp eq i32 %45, 34
  br i1 %46, label %47, label %50

47:                                               ; preds = %39
  %48 = load ptr, ptr @base_yyout, align 8
  %49 = call i32 @fputs(ptr noundef @.str.33, ptr noundef %48)
  br label %155

50:                                               ; preds = %39
  %51 = load ptr, ptr %3, align 8
  %52 = load i32, ptr %5, align 4
  %53 = sext i32 %52 to i64
  %54 = getelementptr inbounds i8, ptr %51, i64 %53
  %55 = load i8, ptr %54, align 1
  %56 = sext i8 %55 to i32
  %57 = icmp eq i32 %56, 10
  br i1 %57, label %58, label %61

58:                                               ; preds = %50
  %59 = load ptr, ptr @base_yyout, align 8
  %60 = call i32 @fputs(ptr noundef @.str.34, ptr noundef %59)
  br label %154

61:                                               ; preds = %50
  %62 = load ptr, ptr %3, align 8
  %63 = load i32, ptr %5, align 4
  %64 = sext i32 %63 to i64
  %65 = getelementptr inbounds i8, ptr %62, i64 %64
  %66 = load i8, ptr %65, align 1
  %67 = sext i8 %66 to i32
  %68 = icmp eq i32 %67, 92
  br i1 %68, label %69, label %121

69:                                               ; preds = %61
  call void @llvm.lifetime.start.p0(i64 4, ptr %7) #5
  %70 = load i32, ptr %5, align 4
  store i32 %70, ptr %7, align 4
  br label %71

71:                                               ; preds = %90, %69
  %72 = load i32, ptr %7, align 4
  %73 = add i32 %72, 1
  store i32 %73, ptr %7, align 4
  br label %74

74:                                               ; preds = %71
  %75 = load ptr, ptr %3, align 8
  %76 = load i32, ptr %7, align 4
  %77 = sext i32 %76 to i64
  %78 = getelementptr inbounds i8, ptr %75, i64 %77
  %79 = load i8, ptr %78, align 1
  %80 = sext i8 %79 to i32
  %81 = icmp eq i32 %80, 32
  br i1 %81, label %90, label %82

82:                                               ; preds = %74
  %83 = load ptr, ptr %3, align 8
  %84 = load i32, ptr %7, align 4
  %85 = sext i32 %84 to i64
  %86 = getelementptr inbounds i8, ptr %83, i64 %85
  %87 = load i8, ptr %86, align 1
  %88 = sext i8 %87 to i32
  %89 = icmp eq i32 %88, 9
  br label %90

90:                                               ; preds = %82, %74
  %91 = phi i1 [ true, %74 ], [ %89, %82 ]
  br i1 %91, label %71, label %92, !llvm.loop !8

92:                                               ; preds = %90
  %93 = load ptr, ptr %3, align 8
  %94 = load i32, ptr %7, align 4
  %95 = sext i32 %94 to i64
  %96 = getelementptr inbounds i8, ptr %93, i64 %95
  %97 = load i8, ptr %96, align 1
  %98 = sext i8 %97 to i32
  %99 = icmp ne i32 %98, 10
  br i1 %99, label %100, label %120

100:                                              ; preds = %92
  %101 = load ptr, ptr %3, align 8
  %102 = load i32, ptr %7, align 4
  %103 = sext i32 %102 to i64
  %104 = getelementptr inbounds i8, ptr %101, i64 %103
  %105 = load i8, ptr %104, align 1
  %106 = sext i8 %105 to i32
  %107 = icmp ne i32 %106, 13
  br i1 %107, label %117, label %108

108:                                              ; preds = %100
  %109 = load ptr, ptr %3, align 8
  %110 = load i32, ptr %7, align 4
  %111 = add i32 %110, 1
  %112 = sext i32 %111 to i64
  %113 = getelementptr inbounds i8, ptr %109, i64 %112
  %114 = load i8, ptr %113, align 1
  %115 = sext i8 %114 to i32
  %116 = icmp ne i32 %115, 10
  br i1 %116, label %117, label %120

117:                                              ; preds = %108, %100
  %118 = load ptr, ptr @base_yyout, align 8
  %119 = call i32 @fputs(ptr noundef @.str.35, ptr noundef %118)
  br label %120

120:                                              ; preds = %117, %108, %92
  call void @llvm.lifetime.end.p0(i64 4, ptr %7) #5
  br label %153

121:                                              ; preds = %61
  %122 = load ptr, ptr %3, align 8
  %123 = load i32, ptr %5, align 4
  %124 = sext i32 %123 to i64
  %125 = getelementptr inbounds i8, ptr %122, i64 %124
  %126 = load i8, ptr %125, align 1
  %127 = sext i8 %126 to i32
  %128 = icmp eq i32 %127, 13
  br i1 %128, label %129, label %143

129:                                              ; preds = %121
  %130 = load ptr, ptr %3, align 8
  %131 = load i32, ptr %5, align 4
  %132 = add i32 %131, 1
  %133 = sext i32 %132 to i64
  %134 = getelementptr inbounds i8, ptr %130, i64 %133
  %135 = load i8, ptr %134, align 1
  %136 = sext i8 %135 to i32
  %137 = icmp eq i32 %136, 10
  br i1 %137, label %138, label %143

138:                                              ; preds = %129
  %139 = load ptr, ptr @base_yyout, align 8
  %140 = call i32 @fputs(ptr noundef @.str.36, ptr noundef %139)
  %141 = load i32, ptr %5, align 4
  %142 = add i32 %141, 1
  store i32 %142, ptr %5, align 4
  br label %152

143:                                              ; preds = %129, %121
  %144 = load ptr, ptr %3, align 8
  %145 = load i32, ptr %5, align 4
  %146 = sext i32 %145 to i64
  %147 = getelementptr inbounds i8, ptr %144, i64 %146
  %148 = load i8, ptr %147, align 1
  %149 = sext i8 %148 to i32
  %150 = load ptr, ptr @base_yyout, align 8
  %151 = call i32 @fputc(i32 noundef %149, ptr noundef %150)
  br label %152

152:                                              ; preds = %143, %138
  br label %153

153:                                              ; preds = %152, %120
  br label %154

154:                                              ; preds = %153, %58
  br label %155

155:                                              ; preds = %154, %47
  br label %156

156:                                              ; preds = %155
  %157 = load i32, ptr %5, align 4
  %158 = add i32 %157, 1
  store i32 %158, ptr %5, align 4
  br label %35, !llvm.loop !9

159:                                              ; preds = %35
  %160 = load i8, ptr %4, align 1, !range !6, !noundef !7
  %161 = trunc i8 %160 to i1
  br i1 %161, label %162, label %179

162:                                              ; preds = %159
  %163 = load ptr, ptr %3, align 8
  %164 = getelementptr inbounds i8, ptr %163, i64 0
  %165 = load i8, ptr %164, align 1
  %166 = sext i8 %165 to i32
  %167 = icmp eq i32 %166, 34
  br i1 %167, label %168, label %179

168:                                              ; preds = %162
  %169 = load ptr, ptr %3, align 8
  %170 = load i32, ptr %6, align 4
  %171 = sext i32 %170 to i64
  %172 = getelementptr inbounds i8, ptr %169, i64 %171
  %173 = load i8, ptr %172, align 1
  %174 = sext i8 %173 to i32
  %175 = icmp eq i32 %174, 34
  br i1 %175, label %176, label %179

176:                                              ; preds = %168
  %177 = load ptr, ptr @base_yyout, align 8
  %178 = call i32 @fputs(ptr noundef @.str.10, ptr noundef %177)
  br label %179

179:                                              ; preds = %176, %168, %162, %159
  call void @llvm.lifetime.end.p0(i64 4, ptr %6) #5
  call void @llvm.lifetime.end.p0(i64 4, ptr %5) #5
  ret void
}