; Function Attrs: nofree nounwind uwtable
define internal fastcc void @output_escaped_str(ptr noundef readonly captures(none) %0, i1 noundef zeroext %1) unnamed_addr #2 {
  %3 = tail call i64 @strlen(ptr noundef nonnull dereferenceable(1) %0) #8
  %4 = trunc i64 %3 to i32
  br i1 %1, label %5, label %17

5:                                                ; preds = %2
  %6 = load i8, ptr %0, align 1
  %7 = icmp eq i8 %6, 34
  br i1 %7, label %8, label %17

8:                                                ; preds = %5
  %9 = shl i64 %3, 32
  %sext = add i64 %9, -4294967296
  %10 = ashr exact i64 %sext, 32
  %11 = getelementptr inbounds i8, ptr %0, i64 %10
  %12 = load i8, ptr %11, align 1
  %13 = icmp eq i8 %12, 34
  br i1 %13, label %14, label %17

14:                                               ; preds = %8
  %15 = add i32 %4, -1
  %16 = load ptr, ptr @base_yyout, align 8
  %fputc = tail call i32 @fputc(i32 34, ptr %16)
  br label %17

17:                                               ; preds = %14, %8, %5, %2
  %.038 = phi i32 [ 1, %14 ], [ 0, %8 ], [ 0, %5 ], [ 0, %2 ]
  %.037 = phi i32 [ %15, %14 ], [ %4, %8 ], [ %4, %5 ], [ %4, %2 ]
  %18 = icmp slt i32 %.038, %.037
  br i1 %18, label %.lr.ph, label %._crit_edge

.lr.ph:                                           ; preds = %17, %.loopexit44
  %.147 = phi i32 [ %52, %.loopexit44 ], [ %.038, %17 ]
  %19 = sext i32 %.147 to i64
  %20 = getelementptr inbounds i8, ptr %0, i64 %19
  %21 = load i8, ptr %20, align 1
  switch i8 %21, label %48 [
    i8 34, label %22
    i8 10, label %25
    i8 92, label %.critedge
    i8 13, label %39
  ]

22:                                               ; preds = %.lr.ph
  %23 = load ptr, ptr @base_yyout, align 8
  %24 = tail call i64 @fwrite(ptr nonnull @.str.33, i64 2, i64 1, ptr %23)
  br label %.loopexit44

25:                                               ; preds = %.lr.ph
  %26 = load ptr, ptr @base_yyout, align 8
  %27 = tail call i64 @fwrite(ptr nonnull @.str.34, i64 2, i64 1, ptr %26)
  br label %.loopexit44

.critedge:                                        ; preds = %.lr.ph, %.critedge.backedge
  %.0 = phi i32 [ %28, %.critedge.backedge ], [ %.147, %.lr.ph ]
  %28 = add i32 %.0, 1
  %29 = sext i32 %28 to i64
  %30 = getelementptr inbounds i8, ptr %0, i64 %29
  %31 = load i8, ptr %30, align 1
  switch i8 %31, label %.loopexit [
    i8 32, label %.critedge.backedge
    i8 9, label %.critedge.backedge
    i8 10, label %.loopexit44
    i8 13, label %32
  ]

.critedge.backedge:                               ; preds = %.critedge, %.critedge
  br label %.critedge

32:                                               ; preds = %.critedge
  %33 = add i32 %.0, 2
  %34 = sext i32 %33 to i64
  %35 = getelementptr inbounds i8, ptr %0, i64 %34
  %36 = load i8, ptr %35, align 1
  %.not43 = icmp eq i8 %36, 10
  br i1 %.not43, label %.loopexit44, label %.loopexit

.loopexit:                                        ; preds = %.critedge, %32
  %37 = load ptr, ptr @base_yyout, align 8
  %38 = tail call i64 @fwrite(ptr nonnull @.str.35, i64 2, i64 1, ptr %37)
  br label %.loopexit44

39:                                               ; preds = %.lr.ph
  %40 = add nsw i32 %.147, 1
  %41 = sext i32 %40 to i64
  %42 = getelementptr inbounds i8, ptr %0, i64 %41
  %43 = load i8, ptr %42, align 1
  %44 = icmp eq i8 %43, 10
  br i1 %44, label %45, label %48

45:                                               ; preds = %39
  %46 = load ptr, ptr @base_yyout, align 8
  %47 = tail call i64 @fwrite(ptr nonnull @.str.36, i64 3, i64 1, ptr %46)
  br label %.loopexit44

48:                                               ; preds = %.lr.ph, %39
  %49 = sext i8 %21 to i32
  %50 = load ptr, ptr @base_yyout, align 8
  %51 = tail call i32 @fputc(i32 noundef %49, ptr noundef %50)
  br label %.loopexit44

.loopexit44:                                      ; preds = %.critedge, %32, %.loopexit, %22, %48, %45, %25
  %.2 = phi i32 [ %.147, %22 ], [ %.147, %25 ], [ %40, %45 ], [ %.147, %48 ], [ %.147, %.loopexit ], [ %.147, %32 ], [ %.147, %.critedge ]
  %52 = add i32 %.2, 1
  %53 = icmp slt i32 %52, %.037
  br i1 %53, label %.lr.ph, label %._crit_edge, !llvm.loop !6

._crit_edge:                                      ; preds = %.loopexit44, %17
  br i1 %1, label %54, label %64

54:                                               ; preds = %._crit_edge
  %55 = load i8, ptr %0, align 1
  %56 = icmp eq i8 %55, 34
  br i1 %56, label %57, label %64

57:                                               ; preds = %54
  %58 = sext i32 %.037 to i64
  %59 = getelementptr inbounds i8, ptr %0, i64 %58
  %60 = load i8, ptr %59, align 1
  %61 = icmp eq i8 %60, 34
  br i1 %61, label %62, label %64

62:                                               ; preds = %57
  %63 = load ptr, ptr @base_yyout, align 8
  %fputc41 = tail call i32 @fputc(i32 34, ptr %63)
  br label %64

64:                                               ; preds = %62, %57, %54, %._crit_edge
  ret void
}